target datalayout = "e-m:e-p270:32:32-p271:32:32-p272:64:64-i64:64-i128:128-f80:128-n8:16:32:64-S128"
target triple = "x86_64-pc-linux-gnu"

%struct.sharedObjectsStruct = type { ptr, ptr, ptr, ptr, ptr, ptr, ptr, ptr, [4 x ptr], [4 x ptr], [4 x ptr], [4 x ptr], ptr, ptr, ptr, ptr, ptr, ptr, ptr, ptr, ptr, ptr, ptr, ptr, ptr, ptr, ptr, ptr, ptr, ptr, ptr, ptr, ptr, ptr, ptr, ptr, ptr, ptr, ptr, ptr, ptr, ptr, ptr, ptr, ptr, ptr, ptr, ptr, ptr, ptr, ptr, ptr, ptr, ptr, ptr, ptr, ptr, ptr, ptr, ptr, ptr, ptr, ptr, ptr, ptr, ptr, ptr, ptr, ptr, ptr, ptr, ptr, ptr, ptr, ptr, ptr, ptr, ptr, ptr, ptr, ptr, ptr, ptr, ptr, ptr, ptr, ptr, ptr, [10 x ptr], [10000 x ptr], [32 x ptr], [32 x ptr], [32 x ptr], [32 x ptr], ptr, ptr }
%struct.client = type { i64, i64, ptr, i8, i8, i8, i8, i32, ptr, ptr, ptr, ptr, ptr, i64, i64, i32, ptr, i32, i32, ptr, i64, ptr, ptr, ptr, ptr, ptr, i32, i32, i64, ptr, i64, ptr, i64, i64, i64, i32, ptr, i64, i64, i32, i32, i32, i32, i64, i64, ptr, i64, i64, i64, i64, i64, i64, i64, i64, [41 x i8], i32, ptr, i32, i32, i64, %struct.multiState, %struct.blockingState, i64, ptr, ptr, ptr, ptr, ptr, ptr, ptr, ptr, ptr, ptr, ptr, ptr, ptr, ptr, i64, ptr, i64, i32, ptr, ptr, ptr, i64, %struct.listNode, i64, i64, i32, i64, ptr }
%struct.multiState = type { ptr, i32, i32, i32, i64, i32 }
%struct.blockingState = type { i32, i64, i32, ptr, i32, i32, i64, ptr, ptr, i64 }
%struct.listNode = type { ptr, ptr, ptr }

@shared = external global %struct.sharedObjectsStruct, align 8

; Function Attrs: nounwind uwtable
define dso_local void @srandmemberCommand(ptr noundef %0) #0 {
  %2 = alloca ptr, align 8
  %3 = alloca ptr, align 8
  %4 = alloca ptr, align 8
  %5 = alloca i64, align 8
  %6 = alloca i64, align 8
  %7 = alloca i32, align 4
  store ptr %0, ptr %2, align 8, !tbaa !71
  call void @llvm.lifetime.start.p0(i64 8, ptr %3) #10
  call void @llvm.lifetime.start.p0(i64 8, ptr %4) #10
  call void @llvm.lifetime.start.p0(i64 8, ptr %5) #10
  call void @llvm.lifetime.start.p0(i64 8, ptr %6) #10
  %8 = load ptr, ptr %2, align 8, !tbaa !71
  %9 = getelementptr inbounds nuw %struct.client, ptr %8, i32 0, i32 15
  %10 = load i32, ptr %9, align 8, !tbaa !82
  %11 = icmp eq i32 %10, 3
  br i1 %11, label %12, label %14

12:                                               ; preds = %1
  %13 = load ptr, ptr %2, align 8, !tbaa !71
  call void @srandmemberWithCountCommand(ptr noundef %13)
  store i32 1, ptr %7, align 4
  br label %57

14:                                               ; preds = %1
  %15 = load ptr, ptr %2, align 8, !tbaa !71
  %16 = getelementptr inbounds nuw %struct.client, ptr %15, i32 0, i32 15
  %17 = load i32, ptr %16, align 8, !tbaa !82
  %18 = icmp sgt i32 %17, 3
  br i1 %18, label %19, label %22

19:                                               ; preds = %14
  %20 = load ptr, ptr %2, align 8, !tbaa !71
  %21 = load ptr, ptr getelementptr inbounds nuw (%struct.sharedObjectsStruct, ptr @shared, i32 0, i32 15), align 8, !tbaa !116
  call void @addReplyErrorObject(ptr noundef %20, ptr noundef %21)
  store i32 1, ptr %7, align 4
  br label %57

22:                                               ; preds = %14
  br label %23

23:                                               ; preds = %22
  %24 = load ptr, ptr %2, align 8, !tbaa !71
  %25 = load ptr, ptr %2, align 8, !tbaa !71
  %26 = getelementptr inbounds nuw %struct.client, ptr %25, i32 0, i32 16
  %27 = load ptr, ptr %26, align 8, !tbaa !81
  %28 = getelementptr inbounds ptr, ptr %27, i64 1
  %29 = load ptr, ptr %28, align 8, !tbaa !41
  %30 = load ptr, ptr %2, align 8, !tbaa !71
  %31 = getelementptr inbounds nuw %struct.client, ptr %30, i32 0, i32 7
  %32 = load i32, ptr %31, align 4, !tbaa !92
  %33 = sext i32 %32 to i64
  %34 = getelementptr inbounds [4 x ptr], ptr getelementptr inbounds nuw (%struct.sharedObjectsStruct, ptr @shared, i32 0, i32 8), i64 0, i64 %33
  %35 = load ptr, ptr %34, align 8, !tbaa !41
  %36 = call ptr @lookupKeyReadOrReply(ptr noundef %24, ptr noundef %29, ptr noundef %35)
  store ptr %36, ptr %3, align 8, !tbaa !41
  %37 = icmp eq ptr %36, null
  br i1 %37, label %43, label %38

38:                                               ; preds = %23
  %39 = load ptr, ptr %2, align 8, !tbaa !71
  %40 = load ptr, ptr %3, align 8, !tbaa !41
  %41 = call i32 @checkType(ptr noundef %39, ptr noundef %40, i32 noundef 2)
  %42 = icmp ne i32 %41, 0
  br i1 %42, label %43, label %44

43:                                               ; preds = %38, %23
  store i32 1, ptr %7, align 4
  br label %57

44:                                               ; preds = %38
  %45 = load ptr, ptr %3, align 8, !tbaa !41
  %46 = call i32 @setTypeRandomElement(ptr noundef %45, ptr noundef %4, ptr noundef %5, ptr noundef %6)
  %47 = load ptr, ptr %4, align 8, !tbaa !5
  %48 = icmp eq ptr %47, null
  br i1 %48, label %49, label %52

49:                                               ; preds = %44
  %50 = load ptr, ptr %2, align 8, !tbaa !71
  %51 = load i64, ptr %6, align 8, !tbaa !10
  call void @addReplyBulkLongLong(ptr noundef %50, i64 noundef %51)
  br label %56

52:                                               ; preds = %44
  %53 = load ptr, ptr %2, align 8, !tbaa !71
  %54 = load ptr, ptr %4, align 8, !tbaa !5
  %55 = load i64, ptr %5, align 8, !tbaa !10
  call void @addReplyBulkCBuffer(ptr noundef %53, ptr noundef %54, i64 noundef %55)
  br label %56

56:                                               ; preds = %52, %49
  store i32 0, ptr %7, align 4
  br label %57

57:                                               ; preds = %56, %43, %19, %12
  call void @llvm.lifetime.end.p0(i64 8, ptr %6) #10
  call void @llvm.lifetime.end.p0(i64 8, ptr %5) #10
  call void @llvm.lifetime.end.p0(i64 8, ptr %4) #10
  call void @llvm.lifetime.end.p0(i64 8, ptr %3) #10
  %58 = load i32, ptr %7, align 4
  switch i32 %58, label %60 [
    i32 0, label %59
    i32 1, label %59
  ]

59:                                               ; preds = %57, %57
  ret void

60:                                               ; preds = %57
  unreachable
}