; Function Attrs: nounwind uwtable
define dso_local void @srandmemberCommand(ptr noundef %0) local_unnamed_addr #0 {
  %2 = alloca ptr, align 8
  %3 = alloca i64, align 8
  %4 = alloca i64, align 8
  call void @llvm.lifetime.start.p0(i64 8, ptr nonnull %2) #10
  call void @llvm.lifetime.start.p0(i64 8, ptr nonnull %3) #10
  call void @llvm.lifetime.start.p0(i64 8, ptr nonnull %4) #10
  %5 = getelementptr inbounds nuw i8, ptr %0, i64 88
  %6 = load i32, ptr %5, align 8, !tbaa !74
  %7 = icmp eq i32 %6, 3
  br i1 %7, label %8, label %9

8:                                                ; preds = %1
  tail call void @srandmemberWithCountCommand(ptr noundef nonnull %0)
  br label %35

9:                                                ; preds = %1
  %10 = icmp sgt i32 %6, 3
  br i1 %10, label %11, label %13

11:                                               ; preds = %9
  %12 = load ptr, ptr getelementptr inbounds nuw (i8, ptr @shared, i64 216), align 8, !tbaa !105
  tail call void @addReplyErrorObject(ptr noundef nonnull %0, ptr noundef %12) #10
  br label %35

13:                                               ; preds = %9
  %14 = getelementptr inbounds nuw i8, ptr %0, i64 96
  %15 = load ptr, ptr %14, align 8, !tbaa !72
  %16 = getelementptr inbounds nuw i8, ptr %15, i64 8
  %17 = load ptr, ptr %16, align 8, !tbaa !73
  %18 = getelementptr inbounds nuw i8, ptr %0, i64 28
  %19 = load i32, ptr %18, align 4, !tbaa !84
  %20 = sext i32 %19 to i64
  %21 = getelementptr inbounds [4 x ptr], ptr getelementptr inbounds nuw (i8, ptr @shared, i64 64), i64 0, i64 %20
  %22 = load ptr, ptr %21, align 8, !tbaa !73
  %23 = tail call ptr @lookupKeyReadOrReply(ptr noundef nonnull %0, ptr noundef %17, ptr noundef %22) #10
  %24 = icmp eq ptr %23, null
  br i1 %24, label %35, label %25

25:                                               ; preds = %13
  %26 = tail call i32 @checkType(ptr noundef nonnull %0, ptr noundef nonnull %23, i32 noundef 2) #10
  %.not = icmp eq i32 %26, 0
  br i1 %.not, label %27, label %35

27:                                               ; preds = %25
  %28 = call i32 @setTypeRandomElement(ptr noundef nonnull %23, ptr noundef nonnull %2, ptr noundef nonnull %3, ptr noundef nonnull %4)
  %29 = load ptr, ptr %2, align 8, !tbaa !49
  %30 = icmp eq ptr %29, null
  br i1 %30, label %31, label %33

31:                                               ; preds = %27
  %32 = load i64, ptr %4, align 8, !tbaa !50
  call void @addReplyBulkLongLong(ptr noundef nonnull %0, i64 noundef %32) #10
  br label %35

33:                                               ; preds = %27
  %34 = load i64, ptr %3, align 8, !tbaa !50
  call void @addReplyBulkCBuffer(ptr noundef nonnull %0, ptr noundef nonnull %29, i64 noundef %34) #10
  br label %35

35:                                               ; preds = %31, %33, %13, %25, %11, %8
  call void @llvm.lifetime.end.p0(i64 8, ptr nonnull %4) #10
  call void @llvm.lifetime.end.p0(i64 8, ptr nonnull %3) #10
  call void @llvm.lifetime.end.p0(i64 8, ptr nonnull %2) #10
  ret void
}